target datalayout = "e-m:e-p270:32:32-p271:32:32-p272:64:64-i64:64-i128:128-f80:128-n8:16:32:64-S128"
target triple = "x86_64-pc-linux-gnu"

%struct.Agobj_s = type { %struct.Agtag_s, ptr }
%struct.Agtag_s = type { i32, i64 }
%struct.Agraphinfo_t = type { %struct.Agrec_s, ptr, ptr, %struct.boxf, [4 x %struct.pointf_s], i8, i8, i8, i8, i32, double, double, i16, ptr, ptr, ptr, ptr, i32, ptr, ptr, ptr, ptr, i16, i16, i32, ptr, ptr, ptr, ptr, ptr, i32, ptr, ptr, %struct.nlist_t, ptr, ptr, i32, i32, i8, i8, i32, i32, i32, ptr, ptr, ptr, ptr, i8, i8, i8, i8, i8 }
%struct.Agrec_s = type { ptr, ptr }
%struct.boxf = type { %struct.pointf_s, %struct.pointf_s }
%struct.pointf_s = type { double, double }
%struct.nlist_t = type { ptr, i64 }

; Function Attrs: nounwind uwtable
define internal void @fdp_cleanup_graph(ptr noundef %0) #0 {
  %2 = alloca ptr, align 8
  store ptr %0, ptr %2, align 8, !tbaa !3
  %3 = load ptr, ptr %2, align 8, !tbaa !3
  call void @cleanup_subgs(ptr noundef %3)
  %4 = load ptr, ptr %2, align 8, !tbaa !3
  %5 = getelementptr inbounds nuw %struct.Agobj_s, ptr %4, i32 0, i32 1
  %6 = load ptr, ptr %5, align 8, !tbaa !10
  %7 = getelementptr inbounds nuw %struct.Agraphinfo_t, ptr %6, i32 0, i32 16
  %8 = load ptr, ptr %7, align 8, !tbaa !15
  call void @free(ptr noundef %8) #8
  %9 = load ptr, ptr %2, align 8, !tbaa !3
  %10 = getelementptr inbounds nuw %struct.Agobj_s, ptr %9, i32 0, i32 1
  %11 = load ptr, ptr %10, align 8, !tbaa !10
  %12 = getelementptr inbounds nuw %struct.Agraphinfo_t, ptr %11, i32 0, i32 13
  %13 = load ptr, ptr %12, align 8, !tbaa !76
  call void @free(ptr noundef %13) #8
  ret void
}

; Function Attrs: nounwind uwtable
define void @fdp_cleanup(ptr noundef %0) #0 {
  %2 = alloca ptr, align 8
  %3 = alloca ptr, align 8
  %4 = alloca ptr, align 8
  store ptr %0, ptr %2, align 8, !tbaa !3
  call void @llvm.lifetime.start.p0(i64 8, ptr %3) #8
  call void @llvm.lifetime.start.p0(i64 8, ptr %4) #8
  %5 = load ptr, ptr %2, align 8, !tbaa !3
  %6 = call ptr @agfstnode(ptr noundef %5)
  store ptr %6, ptr %3, align 8, !tbaa !34
  br label %7

7:                                                ; preds = %25, %1
  %8 = load ptr, ptr %3, align 8, !tbaa !34
  %9 = icmp ne ptr %8, null
  br i1 %9, label %10, label %29

10:                                               ; preds = %7
  %11 = load ptr, ptr %2, align 8, !tbaa !3
  %12 = load ptr, ptr %3, align 8, !tbaa !34
  %13 = call ptr @agfstout(ptr noundef %11, ptr noundef %12)
  store ptr %13, ptr %4, align 8, !tbaa !46
  br label %14

14:                                               ; preds = %19, %10
  %15 = load ptr, ptr %4, align 8, !tbaa !46
  %16 = icmp ne ptr %15, null
  br i1 %16, label %17, label %23

17:                                               ; preds = %14
  %18 = load ptr, ptr %4, align 8, !tbaa !46
  call void @gv_cleanup_edge(ptr noundef %18)
  br label %19

19:                                               ; preds = %17
  %20 = load ptr, ptr %2, align 8, !tbaa !3
  %21 = load ptr, ptr %4, align 8, !tbaa !46
  %22 = call ptr @agnxtout(ptr noundef %20, ptr noundef %21)
  store ptr %22, ptr %4, align 8, !tbaa !46
  br label %14, !llvm.loop !74

23:                                               ; preds = %14
  %24 = load ptr, ptr %3, align 8, !tbaa !34
  call void @gv_cleanup_node(ptr noundef %24)
  br label %25

25:                                               ; preds = %23
  %26 = load ptr, ptr %2, align 8, !tbaa !3
  %27 = load ptr, ptr %3, align 8, !tbaa !34
  %28 = call ptr @agnxtnode(ptr noundef %26, ptr noundef %27)
  store ptr %28, ptr %3, align 8, !tbaa !34
  br label %7, !llvm.loop !75

29:                                               ; preds = %7
  %30 = load ptr, ptr %2, align 8, !tbaa !3
  call void @fdp_cleanup_graph(ptr noundef %30)
  call void @llvm.lifetime.end.p0(i64 8, ptr %4) #8
  call void @llvm.lifetime.end.p0(i64 8, ptr %3) #8
  ret void
}