; Function Attrs: nounwind uwtable
define void @fdp_cleanup(ptr noundef %0) local_unnamed_addr #0 {
  %2 = tail call ptr @agfstnode(ptr noundef %0) #8
  %.not16 = icmp eq ptr %2, null
  br i1 %.not16, label %._crit_edge20, label %.lr.ph19

.lr.ph19:                                         ; preds = %1, %._crit_edge
  %.01217 = phi ptr [ %5, %._crit_edge ], [ %2, %1 ]
  %3 = tail call ptr @agfstout(ptr noundef %0, ptr noundef nonnull %.01217) #8
  %.not1314 = icmp eq ptr %3, null
  br i1 %.not1314, label %._crit_edge, label %.lr.ph

.lr.ph:                                           ; preds = %.lr.ph19, %.lr.ph
  %.015 = phi ptr [ %4, %.lr.ph ], [ %3, %.lr.ph19 ]
  tail call void @gv_cleanup_edge(ptr noundef nonnull %.015) #8
  %4 = tail call ptr @agnxtout(ptr noundef %0, ptr noundef nonnull %.015) #8
  %.not13 = icmp eq ptr %4, null
  br i1 %.not13, label %._crit_edge, label %.lr.ph, !llvm.loop !66

._crit_edge:                                      ; preds = %.lr.ph, %.lr.ph19
  tail call void @gv_cleanup_node(ptr noundef nonnull %.01217) #8
  %5 = tail call ptr @agnxtnode(ptr noundef %0, ptr noundef nonnull %.01217) #8
  %.not = icmp eq ptr %5, null
  br i1 %.not, label %._crit_edge20, label %.lr.ph19, !llvm.loop !67

._crit_edge20:                                    ; preds = %._crit_edge, %1
  tail call fastcc void @cleanup_subgs(ptr noundef readonly %0)
  %6 = getelementptr inbounds nuw i8, ptr %0, i64 16
  %7 = load ptr, ptr %6, align 8, !tbaa !8
  %8 = getelementptr inbounds nuw i8, ptr %7, i64 184
  %9 = load ptr, ptr %8, align 8, !tbaa !14
  tail call void @free(ptr noundef %9) #8
  %10 = load ptr, ptr %6, align 8, !tbaa !8
  %11 = getelementptr inbounds nuw i8, ptr %10, i64 160
  %12 = load ptr, ptr %11, align 8, !tbaa !68
  tail call void @free(ptr noundef %12) #8
  ret void
}